###############################################################################
#                                                                             #
#     IAR Assembler V6.10.2.50871/W32  for MSP430 25/Sep/2014  15:15:31       #
#     Copyright 1996-2014 IAR Systems AB.                                     #
#                                                                             #
#           Target option =  MSP430X                                          #
#           Source file   =  D:\lab5\lab5_assignment\lab5_bero_01.s43         #
#           List file     =  D:\lab5\lab5_assignment\Debug\List\lab5_bero_01.lst#
#           Object file   =  D:\lab5\lab5_assignment\Debug\Obj\lab5_bero_01.r43#
#           Command line  =  D:\lab5\lab5_assignment\lab5_bero_01.s43         #
#                            -OD:\lab5\lab5_assignment\Debug\Obj\ -s+ -M<>    #
#                            -w+ -LD:\lab5\lab5_assignment\Debug\List\ -t8    #
#                            -r -D__MSP430FG4618__ -v1                        #
#                            -IC:\Program Files (x86)\IAR Systems\Embedded Workbench 7.0\430\INC\ #
#                                                                             #
###############################################################################

                                               jmp     LED2Loop            ;
                     Again
                               -------------------^
                               "D:\lab5\lab5_assignment\lab5_bero_01.s43",116 
                     Warning[409]: Jcc or JMP at end of segment part could
                     possibly trigger hard
                               ware problem CPU40, as anything could be placed
                     immediately next to it, including the problematic values
                     0x0?40 and 0x0?50
                               "D:\lab5\lab5_assignment\lab5_bero_01.s43",116 
                     Warning[409]: Jcc or JMP at end of segment part could
                     possibly trigger hard
                               ware problem CPU40, as anything could be placed
                     immediately next to it, including the problematic values
                     0x0?40 and 0x0?50


      1    000000              ;***********************************************
                               *****************************
      2    000000              ; TI Experimenter board assignment, CPE323
      3    000000              ;
      4    000000              ; Description: Toggle P2.1 and P2.2 according to
                                which button is pressed.
      5    000000              ;
      6    000000              ;                 MSP430(xG461x)
      7    000000              ;         /|\ -----------------
      8    000000              ;          | |                 |
      9    000000              ;          --|RST              |
     10    000000              ;            |             P2.2|-->LED1(GREEN)
     11    000000              ;            |             P2.1|-->LED2(YELLOW)
     12    000000              ;            |                 |
     13    000000              ;            |             P1.0|<--SW1
     14    000000              ;            |             P1.1|<--SW2
     15    000000              ;
     16    000000              ; Christopher Bero <bigbero@gmail.com>
     17    000000              ;***********************************************
                               *****************************
     18    000000              
     19    000000              #include        <msp430xG46x.h>         ;
                                Outdated according to mspgcc, should use
     20    000000                                                              
                                               ; msp430.h instead
     21    000000              
     22    000000              ;-----------------------------------------------
                               -----------------------------
     23    000000                                      RSEG    CSTACK          
         ; Define stack
     24    000000              
     25    000000              ;-----------------------------------------------
                               -----------------------------
     26    000000                                      RSEG    CODE            
         ; Assembley to flash
     27    000000              
     28    000000              ;-----------------------------------------------
                               -----------------------------
     29    000000 0343         RESET nop ; Why is IAR such a piece of shit?
                                          Suddenly, colons don't work and all
                                          jumps fail! *gasp*
     30    000002 3140....                             mov.w   #SFE(CSTACK),SP 
         ; Initialize stack pointer
     31    000006 0343         StopWDT nop
     32    000008 B240805A2001                         mov.w   #WDTPW+WDTHOLD,&
 WDTCTL  ; Stop WDT
     33    00000E              
     34    00000E              ;-----------------------------------------------
                               -----------------------------
     35    00000E 0343         Setup nop
     36    000010 F2D006002A00                 bis.b   #06h,&P2DIR            
  ; Set P2.1&P2.2 to output
     37    000016                                                             
                                ; direction (0000_0110)
     38    000016 C2D32900                     bis.b   #00h,&P2OUT            
  ; Set P2OUT to 0x0000_0000
     39    00001A                                                             
                                ;(LED2 is off, LED1 is off)
     40    00001A              
     41    00001A 32D2                         bis.w   #GIE,SR                
  ; Enable global interrupts
     42    00001C F2D003002500                 bis.b   #003h,&P1IE            
  ; Enable Port 1 interrupt from bit 0
     43    000022 F2D003002400                 bis.b   #003h,&P1IES           
  ; Set interrupt to call from hi to low
     44    000028 D2C32300                     bic.b   #001h,&P1IFG           
  ; Clear interrupt flag
     45    00002C              
     46    00002C E2C32900     Main            bic.b   #02h, &P2OUT
     47    000030 FD3F                         jmp     Main                   
  ; Loop until interrupt
     48    000032              
     49    000032              ;-----------------------------------------------
                               -----------------------------
     50    000032              ; P1_0 (SW1) interrupt service routine
                                (ISR)
     51    000032              ;-----------------------------------------------
                               -----------------------------
     52    000032 0343         SW1_ISR nop
     53    000034 D2C32300                     bic.b   #01h,&P1IFG            ;
  Clear interrupt flag
     54    000038 0343         ChkSw1 nop
     55    00003A D2B32000                     bit.b   #01h,&P1IN             ;
  Check if SW1 is pressed (0000_0001 on P1IN)
     56    00003E 1820                         jnz     ChkSw2                 
  ; If not zero, SW is not pressed
     57    000040              
     58    000040 0343         Debounce1 nop
     59    000042 3F40D007                     mov.w   #02000,R15             
  ; Set to (2000 * 10 ms delay)
     60    000046 0343         L1 nop  
     61    000048 1F83                         dec.w   R15                    
  ; Decrement R15
     62    00004A 0343                         nop
     63    00004C 0343                         nop
     64    00004E 0343                         nop
     65    000050 0343                         nop
     66    000052 0343                         nop
     67    000054 0343                         nop
     68    000056 0343                         nop
     69    000058 F623                         jnz     L1                     
  ; Delay over?
     70    00005A D2B32000                     bit.b   #00000001b,&P1IN       
  ; verify SW1 is still pressed
     71    00005E 0D20                         jnz     LEDDone                
  ; if not, wait for SW1 press
     72    000060              
     73    000060 0343         LED1 nop
     74    000062 E2E22900                     xor.b   #004h,&P2OUT           
  ; toggle LED1
     75    000066 0343         LED1Wait nop
     76    000068 D2B32000                     bit.b   #00000001b,&P1IN       
  ; verify SW1 is still pressed
     77    00006C 0620                         jnz     LEDDone
     78    00006E FB3F                         jmp     LED1Wait
     79    000070              
     80    000070 0343         ChkSw2 nop      
     81    000072 E2B32000                     bit.b   #02h,&P1IN              
         ; Check if SW2 is pressed (0000_0010 on P1IN)
     82    000076 0120                         jnz     LEDDone                 
         ; If not zero, SW is not pressed
     83    000078                                                              
                                       ; loop and check again
     84    000078 043C                         jmp     Debounce2               
         ; go to debounce
     85    00007A              
     86    00007A              
     87    00007A              
     88    00007A 0343         LEDDone nop
     89    00007C E2C32900                     bic.b   #002h, &P2OUT
     90    000080 0013                         reti                            
         ; return from interrupt
     91    000082              
     92    000082 0343         Debounce2 nop
     93    000084 3F40D007                     mov.w   #02000,R15              
         ; Set to (2000 * 10 ms delay)
     94    000088 0343         L2 nop  
     95    00008A 1F83                         dec.w   R15                     
         ; Decrement R15
     96    00008C 0343                         nop
     97    00008E 0343                         nop
     98    000090 0343                         nop
     99    000092 0343                         nop
    100    000094 0343                         nop
    101    000096 0343                         nop
    102    000098 0343                         nop
    103    00009A F623                         jnz     L2                     
  ; Delay over?
    104    00009C E2B32000                     bit.b   #00000010b,&P1IN       
  ; verify SW2 is still pressed
    105    0000A0 EC23                         jnz     LEDDone                
  ; if not, wait for SW2 press
    106    0000A2              
    107    0000A2 0343         LED2Loop nop
    108    0000A4 E2E32900                     xor.b   #002h,&P2OUT        ;
  Toggle P2.1 using XOR
    109    0000A8 0343         Wait nop
    110    0000AA 3F401027                     mov.w   #010000,R15         ;
  Delay to R15 (~0.1sec)
    111    0000AE 0343         L3 nop
    112    0000B0 1F83                         dec.w   R15                 ;
  Decrement R15
    113    0000B2 FD23                         jnz     L3                  ;
  Delay over?
    114    0000B4 E2B32000                     bit.b   #00000010b,&P1IN       
  ; verify SW2 is still pressed
    115    0000B8 E023                         jnz     LEDDone                
  ; if not, wait for SW2 press
    116    0000BA F33F                         jmp     LED2Loop            ;
  Again
                                               jmp     LED2Loop            ;
                     Again
                               -------------------^
                               "D:\lab5\lab5_assignment\lab5_bero_01.s43",116 
                     Warning[409]: Jcc or JMP at end of segment part could
                     possibly trigger hard
                               ware problem CPU40, as anything could be placed
                     immediately next to it, including the problematic values
                     0x0?40 and 0x0?50
                               "D:\lab5\lab5_assignment\lab5_bero_01.s43",116 
                     Warning[409]: Jcc or JMP at end of segment part could
                     possibly trigger hard
                               ware problem CPU40, as anything could be placed
                     immediately next to it, including the problematic values
                     0x0?40 and 0x0?50
    117    0000BC              
    118    0000BC              ;-----------------------------------------------
                               -----------------------------
    119    000000                              COMMON  INTVEC                 
  ; Interrupt Vectors
    120    000000              
    121    000000              ;-----------------------------------------------
                               -----------------------------
    122    00003E                              ORG     RESET_VECTOR           
  ; MSP430 RESET Vector
    123    00003E ....                         DW      RESET                  
                                                         ;
    124    000028                              ORG     PORT1_VECTOR           
  ; Port1 interrupt vector
    125    000028 ....                         DW      SW1_ISR                
                                                         ; go to SW1_ISR
    126    00002A                              END
##############################
#          CRC:7B18          #
#        Errors:   0         #
#        Warnings: 2         #
#         Bytes: 192         #
##############################



